target datalayout = "e-m:e-p270:32:32-p271:32:32-p272:64:64-i64:64-i128:128-f80:128-n8:16:32:64-S128"
target triple = "x86_64-pc-linux-gnu"

%struct.mz_stream_s = type { ptr, i32, i64, ptr, i32, i64, ptr, ptr, ptr, ptr, ptr, i32, i64, i64 }
%struct.tdefl_compressor = type { ptr, ptr, i32, [2 x i32], i32, i32, i32, i32, i32, ptr, ptr, ptr, ptr, i32, i32, i32, i32, i32, i32, i32, i32, i32, i32, i32, i32, i32, i32, ptr, ptr, ptr, ptr, i32, ptr, i64, i64, [33025 x i8], [3 x [288 x i16]], [3 x [288 x i16]], [3 x [288 x i8]], [65536 x i8], [32768 x i16], [32768 x i16], [85196 x i8] }

; Function Attrs: mustprogress nounwind uwtable
define i32 @tdefl_init(ptr noundef %0, ptr noundef %1, ptr noundef %2, i32 noundef %3) #4 {
  %5 = alloca ptr, align 8
  %6 = alloca ptr, align 8
  %7 = alloca ptr, align 8
  %8 = alloca i32, align 4
  store ptr %0, ptr %5, align 8
  store ptr %1, ptr %6, align 8
  store ptr %2, ptr %7, align 8
  store i32 %3, ptr %8, align 4
  %9 = load ptr, ptr %6, align 8
  %10 = load ptr, ptr %5, align 8
  %11 = getelementptr inbounds %struct.tdefl_compressor, ptr %10, i32 0, i32 0
  store ptr %9, ptr %11, align 8
  %12 = load ptr, ptr %7, align 8
  %13 = load ptr, ptr %5, align 8
  %14 = getelementptr inbounds %struct.tdefl_compressor, ptr %13, i32 0, i32 1
  store ptr %12, ptr %14, align 8
  %15 = load i32, ptr %8, align 4
  %16 = load ptr, ptr %5, align 8
  %17 = getelementptr inbounds %struct.tdefl_compressor, ptr %16, i32 0, i32 2
  store i32 %15, ptr %17, align 8
  %18 = load i32, ptr %8, align 4
  %19 = and i32 %18, 4095
  %20 = add nsw i32 %19, 2
  %21 = sdiv i32 %20, 3
  %22 = add nsw i32 1, %21
  %23 = load ptr, ptr %5, align 8
  %24 = getelementptr inbounds %struct.tdefl_compressor, ptr %23, i32 0, i32 3
  %25 = getelementptr inbounds [2 x i32], ptr %24, i64 0, i64 0
  store i32 %22, ptr %25, align 4
  %26 = load i32, ptr %8, align 4
  %27 = and i32 %26, 16384
  %28 = icmp ne i32 %27, 0
  %29 = zext i1 %28 to i32
  %30 = load ptr, ptr %5, align 8
  %31 = getelementptr inbounds %struct.tdefl_compressor, ptr %30, i32 0, i32 4
  store i32 %29, ptr %31, align 4
  %32 = load i32, ptr %8, align 4
  %33 = and i32 %32, 4095
  %34 = ashr i32 %33, 2
  %35 = add nsw i32 %34, 2
  %36 = sdiv i32 %35, 3
  %37 = add nsw i32 1, %36
  %38 = load ptr, ptr %5, align 8
  %39 = getelementptr inbounds %struct.tdefl_compressor, ptr %38, i32 0, i32 3
  %40 = getelementptr inbounds [2 x i32], ptr %39, i64 0, i64 1
  store i32 %37, ptr %40, align 4
  %41 = load i32, ptr %8, align 4
  %42 = and i32 %41, 32768
  %43 = icmp ne i32 %42, 0
  br i1 %43, label %47, label %44

44:                                               ; preds = %4
  %45 = load ptr, ptr %5, align 8
  %46 = getelementptr inbounds %struct.tdefl_compressor, ptr %45, i32 0, i32 41
  call void @llvm.memset.p0.i64(ptr align 2 %46, i8 0, i64 65536, i1 false)
  br label %47

47:                                               ; preds = %44, %4
  %48 = load ptr, ptr %5, align 8
  %49 = getelementptr inbounds %struct.tdefl_compressor, ptr %48, i32 0, i32 16
  store i32 0, ptr %49, align 4
  %50 = load ptr, ptr %5, align 8
  %51 = getelementptr inbounds %struct.tdefl_compressor, ptr %50, i32 0, i32 15
  store i32 0, ptr %51, align 8
  %52 = load ptr, ptr %5, align 8
  %53 = getelementptr inbounds %struct.tdefl_compressor, ptr %52, i32 0, i32 14
  store i32 0, ptr %53, align 4
  %54 = load ptr, ptr %5, align 8
  %55 = getelementptr inbounds %struct.tdefl_compressor, ptr %54, i32 0, i32 8
  store i32 0, ptr %55, align 4
  %56 = load ptr, ptr %5, align 8
  %57 = getelementptr inbounds %struct.tdefl_compressor, ptr %56, i32 0, i32 7
  store i32 0, ptr %57, align 8
  %58 = load ptr, ptr %5, align 8
  %59 = getelementptr inbounds %struct.tdefl_compressor, ptr %58, i32 0, i32 6
  store i32 0, ptr %59, align 4
  %60 = load ptr, ptr %5, align 8
  %61 = getelementptr inbounds %struct.tdefl_compressor, ptr %60, i32 0, i32 25
  store i32 0, ptr %61, align 8
  %62 = load ptr, ptr %5, align 8
  %63 = getelementptr inbounds %struct.tdefl_compressor, ptr %62, i32 0, i32 17
  store i32 0, ptr %63, align 8
  %64 = load ptr, ptr %5, align 8
  %65 = getelementptr inbounds %struct.tdefl_compressor, ptr %64, i32 0, i32 24
  store i32 0, ptr %65, align 4
  %66 = load ptr, ptr %5, align 8
  %67 = getelementptr inbounds %struct.tdefl_compressor, ptr %66, i32 0, i32 23
  store i32 0, ptr %67, align 8
  %68 = load ptr, ptr %5, align 8
  %69 = getelementptr inbounds %struct.tdefl_compressor, ptr %68, i32 0, i32 22
  store i32 0, ptr %69, align 4
  %70 = load ptr, ptr %5, align 8
  %71 = getelementptr inbounds %struct.tdefl_compressor, ptr %70, i32 0, i32 21
  store i32 0, ptr %71, align 8
  %72 = load ptr, ptr %5, align 8
  %73 = getelementptr inbounds %struct.tdefl_compressor, ptr %72, i32 0, i32 39
  %74 = getelementptr inbounds [65536 x i8], ptr %73, i64 0, i64 0
  %75 = getelementptr inbounds i8, ptr %74, i64 1
  %76 = load ptr, ptr %5, align 8
  %77 = getelementptr inbounds %struct.tdefl_compressor, ptr %76, i32 0, i32 9
  store ptr %75, ptr %77, align 8
  %78 = load ptr, ptr %5, align 8
  %79 = getelementptr inbounds %struct.tdefl_compressor, ptr %78, i32 0, i32 39
  %80 = getelementptr inbounds [65536 x i8], ptr %79, i64 0, i64 0
  %81 = load ptr, ptr %5, align 8
  %82 = getelementptr inbounds %struct.tdefl_compressor, ptr %81, i32 0, i32 10
  store ptr %80, ptr %82, align 8
  %83 = load ptr, ptr %5, align 8
  %84 = getelementptr inbounds %struct.tdefl_compressor, ptr %83, i32 0, i32 13
  store i32 8, ptr %84, align 8
  %85 = load ptr, ptr %5, align 8
  %86 = getelementptr inbounds %struct.tdefl_compressor, ptr %85, i32 0, i32 42
  %87 = getelementptr inbounds [85196 x i8], ptr %86, i64 0, i64 0
  %88 = load ptr, ptr %5, align 8
  %89 = getelementptr inbounds %struct.tdefl_compressor, ptr %88, i32 0, i32 11
  store ptr %87, ptr %89, align 8
  %90 = load ptr, ptr %5, align 8
  %91 = getelementptr inbounds %struct.tdefl_compressor, ptr %90, i32 0, i32 42
  %92 = getelementptr inbounds [85196 x i8], ptr %91, i64 0, i64 0
  %93 = load ptr, ptr %5, align 8
  %94 = getelementptr inbounds %struct.tdefl_compressor, ptr %93, i32 0, i32 12
  store ptr %92, ptr %94, align 8
  %95 = load ptr, ptr %5, align 8
  %96 = getelementptr inbounds %struct.tdefl_compressor, ptr %95, i32 0, i32 26
  store i32 0, ptr %96, align 4
  %97 = load ptr, ptr %5, align 8
  %98 = getelementptr inbounds %struct.tdefl_compressor, ptr %97, i32 0, i32 20
  store i32 0, ptr %98, align 4
  %99 = load ptr, ptr %5, align 8
  %100 = getelementptr inbounds %struct.tdefl_compressor, ptr %99, i32 0, i32 19
  store i32 0, ptr %100, align 8
  %101 = load ptr, ptr %5, align 8
  %102 = getelementptr inbounds %struct.tdefl_compressor, ptr %101, i32 0, i32 18
  store i32 0, ptr %102, align 4
  %103 = load ptr, ptr %5, align 8
  %104 = getelementptr inbounds %struct.tdefl_compressor, ptr %103, i32 0, i32 5
  store i32 1, ptr %104, align 8
  %105 = load ptr, ptr %5, align 8
  %106 = getelementptr inbounds %struct.tdefl_compressor, ptr %105, i32 0, i32 27
  store ptr null, ptr %106, align 8
  %107 = load ptr, ptr %5, align 8
  %108 = getelementptr inbounds %struct.tdefl_compressor, ptr %107, i32 0, i32 28
  store ptr null, ptr %108, align 8
  %109 = load ptr, ptr %5, align 8
  %110 = getelementptr inbounds %struct.tdefl_compressor, ptr %109, i32 0, i32 29
  store ptr null, ptr %110, align 8
  %111 = load ptr, ptr %5, align 8
  %112 = getelementptr inbounds %struct.tdefl_compressor, ptr %111, i32 0, i32 30
  store ptr null, ptr %112, align 8
  %113 = load ptr, ptr %5, align 8
  %114 = getelementptr inbounds %struct.tdefl_compressor, ptr %113, i32 0, i32 31
  store i32 0, ptr %114, align 8
  %115 = load ptr, ptr %5, align 8
  %116 = getelementptr inbounds %struct.tdefl_compressor, ptr %115, i32 0, i32 32
  store ptr null, ptr %116, align 8
  %117 = load ptr, ptr %5, align 8
  %118 = getelementptr inbounds %struct.tdefl_compressor, ptr %117, i32 0, i32 33
  store i64 0, ptr %118, align 8
  %119 = load ptr, ptr %5, align 8
  %120 = getelementptr inbounds %struct.tdefl_compressor, ptr %119, i32 0, i32 34
  store i64 0, ptr %120, align 8
  %121 = load ptr, ptr %5, align 8
  %122 = getelementptr inbounds %struct.tdefl_compressor, ptr %121, i32 0, i32 36
  %123 = getelementptr inbounds [3 x [288 x i16]], ptr %122, i64 0, i64 0
  %124 = getelementptr inbounds [288 x i16], ptr %123, i64 0, i64 0
  call void @llvm.memset.p0.i64(ptr align 2 %124, i8 0, i64 576, i1 false)
  %125 = load ptr, ptr %5, align 8
  %126 = getelementptr inbounds %struct.tdefl_compressor, ptr %125, i32 0, i32 36
  %127 = getelementptr inbounds [3 x [288 x i16]], ptr %126, i64 0, i64 1
  %128 = getelementptr inbounds [288 x i16], ptr %127, i64 0, i64 0
  call void @llvm.memset.p0.i64(ptr align 2 %128, i8 0, i64 64, i1 false)
  ret i32 0
}

; Function Attrs: mustprogress uwtable
define i32 @mz_deflateReset(ptr noundef %0) #5 {
  %2 = alloca i32, align 4
  %3 = alloca ptr, align 8
  store ptr %0, ptr %3, align 8
  %4 = load ptr, ptr %3, align 8
  %5 = icmp ne ptr %4, null
  br i1 %5, label %6, label %21

6:                                                ; preds = %1
  %7 = load ptr, ptr %3, align 8
  %8 = getelementptr inbounds %struct.mz_stream_s, ptr %7, i32 0, i32 7
  %9 = load ptr, ptr %8, align 8
  %10 = icmp ne ptr %9, null
  br i1 %10, label %11, label %21

11:                                               ; preds = %6
  %12 = load ptr, ptr %3, align 8
  %13 = getelementptr inbounds %struct.mz_stream_s, ptr %12, i32 0, i32 8
  %14 = load ptr, ptr %13, align 8
  %15 = icmp ne ptr %14, null
  br i1 %15, label %16, label %21

16:                                               ; preds = %11
  %17 = load ptr, ptr %3, align 8
  %18 = getelementptr inbounds %struct.mz_stream_s, ptr %17, i32 0, i32 9
  %19 = load ptr, ptr %18, align 8
  %20 = icmp ne ptr %19, null
  br i1 %20, label %22, label %21

21:                                               ; preds = %16, %11, %6, %1
  store i32 -2, ptr %2, align 4
  br label %36

22:                                               ; preds = %16
  %23 = load ptr, ptr %3, align 8
  %24 = getelementptr inbounds %struct.mz_stream_s, ptr %23, i32 0, i32 5
  store i64 0, ptr %24, align 8
  %25 = load ptr, ptr %3, align 8
  %26 = getelementptr inbounds %struct.mz_stream_s, ptr %25, i32 0, i32 2
  store i64 0, ptr %26, align 8
  %27 = load ptr, ptr %3, align 8
  %28 = getelementptr inbounds %struct.mz_stream_s, ptr %27, i32 0, i32 7
  %29 = load ptr, ptr %28, align 8
  %30 = load ptr, ptr %3, align 8
  %31 = getelementptr inbounds %struct.mz_stream_s, ptr %30, i32 0, i32 7
  %32 = load ptr, ptr %31, align 8
  %33 = getelementptr inbounds %struct.tdefl_compressor, ptr %32, i32 0, i32 2
  %34 = load i32, ptr %33, align 8
  %35 = call i32 @tdefl_init(ptr noundef %29, ptr noundef null, ptr noundef null, i32 noundef %34)
  store i32 0, ptr %2, align 4
  br label %36

36:                                               ; preds = %22, %21
  %37 = load i32, ptr %2, align 4
  ret i32 %37
}