; Function Attrs: mustprogress nofree norecurse nosync nounwind willreturn memory(readwrite, inaccessiblemem: none) uwtable
define noundef i32 @mz_deflateReset(ptr noundef %0) local_unnamed_addr #19 {
  %.not = icmp eq ptr %0, null
  br i1 %.not, label %49, label %2

2:                                                ; preds = %1
  %3 = getelementptr inbounds i8, ptr %0, i64 56
  %4 = load ptr, ptr %3, align 8
  %.not9 = icmp eq ptr %4, null
  br i1 %.not9, label %49, label %5

5:                                                ; preds = %2
  %6 = getelementptr inbounds i8, ptr %0, i64 64
  %7 = load ptr, ptr %6, align 8
  %.not10 = icmp eq ptr %7, null
  br i1 %.not10, label %49, label %8

8:                                                ; preds = %5
  %9 = getelementptr inbounds i8, ptr %0, i64 72
  %10 = load ptr, ptr %9, align 8
  %.not11 = icmp eq ptr %10, null
  br i1 %.not11, label %49, label %11

11:                                               ; preds = %8
  %12 = getelementptr inbounds i8, ptr %0, i64 40
  store i64 0, ptr %12, align 8
  %13 = getelementptr inbounds i8, ptr %0, i64 16
  store i64 0, ptr %13, align 8
  %14 = getelementptr inbounds i8, ptr %4, i64 16
  %15 = load i32, ptr %14, align 8
  %16 = and i32 %15, 4095
  %17 = trunc i32 %16 to i16
  %.lhs.trunc.i = add nuw nsw i16 %17, 2
  %18 = udiv i16 %.lhs.trunc.i, 3
  %narrow.i = add nuw nsw i16 %18, 1
  %19 = zext nneg i16 %narrow.i to i32
  %20 = getelementptr inbounds i8, ptr %4, i64 20
  tail call void @llvm.memset.p0.i64(ptr noundef nonnull align 8 dereferenceable(16) %4, i8 0, i64 16, i1 false)
  store i32 %19, ptr %20, align 4
  %21 = lshr i32 %15, 14
  %.lobit.i = and i32 %21, 1
  %22 = getelementptr inbounds i8, ptr %4, i64 28
  store i32 %.lobit.i, ptr %22, align 4
  %23 = lshr i32 %16, 2
  %24 = trunc i32 %23 to i16
  %.lhs.trunc49.i = add nuw nsw i16 %24, 2
  %25 = udiv i16 %.lhs.trunc49.i, 3
  %narrow51.i = add nuw nsw i16 %25, 1
  %26 = zext nneg i16 %narrow51.i to i32
  %27 = getelementptr inbounds i8, ptr %4, i64 24
  store i32 %26, ptr %27, align 4
  %28 = and i32 %15, 32768
  %.not.i = icmp eq i32 %28, 0
  br i1 %.not.i, label %29, label %tdefl_init.exit

29:                                               ; preds = %11
  %30 = getelementptr inbounds i8, ptr %4, i64 168618
  tail call void @llvm.memset.p0.i64(ptr noundef nonnull align 2 dereferenceable(65536) %30, i8 0, i64 65536, i1 false)
  br label %tdefl_init.exit

tdefl_init.exit:                                  ; preds = %11, %29
  %31 = getelementptr inbounds i8, ptr %4, i64 84
  %32 = getelementptr inbounds i8, ptr %4, i64 112
  %33 = getelementptr inbounds i8, ptr %4, i64 37546
  %34 = getelementptr inbounds i8, ptr %4, i64 37547
  %35 = getelementptr inbounds i8, ptr %4, i64 48
  tail call void @llvm.memset.p0.i64(ptr noundef nonnull align 4 dereferenceable(16) %31, i8 0, i64 16, i1 false)
  tail call void @llvm.memset.p0.i64(ptr noundef nonnull align 8 dereferenceable(20) %32, i8 0, i64 20, i1 false)
  store ptr %34, ptr %35, align 8
  %36 = getelementptr inbounds i8, ptr %4, i64 56
  store ptr %33, ptr %36, align 8
  %37 = getelementptr inbounds i8, ptr %4, i64 80
  store i32 8, ptr %37, align 8
  %38 = getelementptr inbounds i8, ptr %4, i64 234154
  %39 = getelementptr inbounds i8, ptr %4, i64 64
  store ptr %38, ptr %39, align 8
  %40 = getelementptr inbounds i8, ptr %4, i64 72
  store ptr %38, ptr %40, align 8
  %41 = getelementptr inbounds i8, ptr %4, i64 132
  store i32 0, ptr %41, align 4
  %42 = getelementptr inbounds i8, ptr %4, i64 108
  store i32 0, ptr %42, align 4
  %43 = getelementptr inbounds i8, ptr %4, i64 104
  store i32 0, ptr %43, align 8
  %44 = getelementptr inbounds i8, ptr %4, i64 100
  store i32 0, ptr %44, align 4
  %45 = getelementptr inbounds i8, ptr %4, i64 32
  store <4 x i32> <i32 1, i32 0, i32 0, i32 0>, ptr %45, align 8
  %46 = getelementptr inbounds i8, ptr %4, i64 136
  %47 = getelementptr inbounds i8, ptr %4, i64 176
  %48 = getelementptr inbounds i8, ptr %4, i64 33226
  tail call void @llvm.memset.p0.i64(ptr noundef nonnull align 8 dereferenceable(36) %46, i8 0, i64 36, i1 false)
  tail call void @llvm.memset.p0.i64(ptr noundef nonnull align 8 dereferenceable(24) %47, i8 0, i64 24, i1 false)
  tail call void @llvm.memset.p0.i64(ptr noundef nonnull align 2 dereferenceable(640) %48, i8 0, i64 640, i1 false)
  br label %49

49:                                               ; preds = %1, %2, %5, %8, %tdefl_init.exit
  %.0 = phi i32 [ 0, %tdefl_init.exit ], [ -2, %8 ], [ -2, %5 ], [ -2, %2 ], [ -2, %1 ]
  ret i32 %.0
}